target datalayout = "e-m:e-p270:32:32-p271:32:32-p272:64:64-i64:64-i128:128-f80:128-n8:16:32:64-S128"
target triple = "x86_64-pc-linux-gnu"

%struct.Ssw_Man_t_ = type { ptr, i32, ptr, ptr, ptr, ptr, i32, ptr, ptr, ptr, i32, i32, i32, i32, i32, i32, i32, i32, i32, i32, i32, ptr, i32, ptr, i32, i32, i32, i32, ptr, ptr, ptr, i32, ptr, i32, i32, ptr, ptr, ptr, i32, ptr, i32, i32, i32, i32, i32, i32, i32, i32, i32, i32, i32, i32, i32, i32, i32, i32, i32, i32, i32, i32, i32, i32, i64, i64, i64, i64, i64, i64, i64, i64, i64, i64 }
%struct.Aig_Obj_t_ = type { %union.anon, ptr, ptr, i64, i32, i32, %union.anon.0 }
%union.anon = type { ptr }
%union.anon.0 = type { ptr }

; Function Attrs: inlinehint nounwind uwtable
define internal i32 @Aig_IsComplement(ptr noundef %0) #2 {
  %2 = alloca ptr, align 8
  store ptr %0, ptr %2, align 8, !tbaa !30
  %3 = load ptr, ptr %2, align 8, !tbaa !30
  %4 = ptrtoint ptr %3 to i64
  %5 = and i64 %4, 1
  %6 = trunc i64 %5 to i32
  ret i32 %6
}

; Function Attrs: inlinehint nounwind uwtable
define internal i32 @Aig_ObjFaninC1(ptr noundef %0) #2 {
  %2 = alloca ptr, align 8
  store ptr %0, ptr %2, align 8, !tbaa !30
  %3 = load ptr, ptr %2, align 8, !tbaa !30
  %4 = getelementptr inbounds nuw %struct.Aig_Obj_t_, ptr %3, i32 0, i32 2
  %5 = load ptr, ptr %4, align 8, !tbaa !76
  %6 = call i32 @Aig_IsComplement(ptr noundef %5)
  ret i32 %6
}

; Function Attrs: inlinehint nounwind uwtable
define internal ptr @Aig_NotCond(ptr noundef %0, i32 noundef %1) #2 {
  %3 = alloca ptr, align 8
  %4 = alloca i32, align 4
  store ptr %0, ptr %3, align 8, !tbaa !30
  store i32 %1, ptr %4, align 4, !tbaa !8
  %5 = load ptr, ptr %3, align 8, !tbaa !30
  %6 = ptrtoint ptr %5 to i64
  %7 = load i32, ptr %4, align 4, !tbaa !8
  %8 = sext i32 %7 to i64
  %9 = xor i64 %6, %8
  %10 = inttoptr i64 %9 to ptr
  ret ptr %10
}

; Function Attrs: inlinehint nounwind uwtable
define internal i32 @Aig_ObjFaninC0(ptr noundef %0) #2 {
  %2 = alloca ptr, align 8
  store ptr %0, ptr %2, align 8, !tbaa !30
  %3 = load ptr, ptr %2, align 8, !tbaa !30
  %4 = getelementptr inbounds nuw %struct.Aig_Obj_t_, ptr %3, i32 0, i32 1
  %5 = load ptr, ptr %4, align 8, !tbaa !75
  %6 = call i32 @Aig_IsComplement(ptr noundef %5)
  ret i32 %6
}

; Function Attrs: inlinehint nounwind uwtable
define internal ptr @Aig_Regular(ptr noundef %0) #2 {
  %2 = alloca ptr, align 8
  store ptr %0, ptr %2, align 8, !tbaa !30
  %3 = load ptr, ptr %2, align 8, !tbaa !30
  %4 = ptrtoint ptr %3 to i64
  %5 = and i64 %4, -2
  %6 = inttoptr i64 %5 to ptr
  ret ptr %6
}

; Function Attrs: inlinehint nounwind uwtable
define internal void @Ssw_ObjSetFrame(ptr noundef %0, ptr noundef %1, i32 noundef %2, ptr noundef %3) #2 {
  %5 = alloca ptr, align 8
  %6 = alloca ptr, align 8
  %7 = alloca i32, align 4
  %8 = alloca ptr, align 8
  store ptr %0, ptr %5, align 8, !tbaa !3
  store ptr %1, ptr %6, align 8, !tbaa !30
  store i32 %2, ptr %7, align 4, !tbaa !8
  store ptr %3, ptr %8, align 8, !tbaa !30
  %9 = load ptr, ptr %8, align 8, !tbaa !30
  %10 = load ptr, ptr %5, align 8, !tbaa !3
  %11 = getelementptr inbounds nuw %struct.Ssw_Man_t_, ptr %10, i32 0, i32 4
  %12 = load ptr, ptr %11, align 8, !tbaa !42
  %13 = load ptr, ptr %5, align 8, !tbaa !3
  %14 = getelementptr inbounds nuw %struct.Ssw_Man_t_, ptr %13, i32 0, i32 1
  %15 = load i32, ptr %14, align 8, !tbaa !43
  %16 = load ptr, ptr %6, align 8, !tbaa !30
  %17 = getelementptr inbounds nuw %struct.Aig_Obj_t_, ptr %16, i32 0, i32 5
  %18 = load i32, ptr %17, align 4, !tbaa !44
  %19 = mul nsw i32 %15, %18
  %20 = load i32, ptr %7, align 4, !tbaa !8
  %21 = add nsw i32 %19, %20
  %22 = sext i32 %21 to i64
  %23 = getelementptr inbounds ptr, ptr %12, i64 %22
  store ptr %9, ptr %23, align 8, !tbaa !30
  ret void
}

; Function Attrs: inlinehint nounwind uwtable
define internal ptr @Ssw_ObjChild1Fra(ptr noundef %0, ptr noundef %1, i32 noundef %2) #2 {
  %4 = alloca ptr, align 8
  %5 = alloca ptr, align 8
  %6 = alloca i32, align 4
  store ptr %0, ptr %4, align 8, !tbaa !3
  store ptr %1, ptr %5, align 8, !tbaa !30
  store i32 %2, ptr %6, align 4, !tbaa !8
  %7 = load ptr, ptr %5, align 8, !tbaa !30
  %8 = call ptr @Aig_ObjFanin1(ptr noundef %7)
  %9 = icmp ne ptr %8, null
  br i1 %9, label %10, label %19

10:                                               ; preds = %3
  %11 = load ptr, ptr %4, align 8, !tbaa !3
  %12 = load ptr, ptr %5, align 8, !tbaa !30
  %13 = call ptr @Aig_ObjFanin1(ptr noundef %12)
  %14 = load i32, ptr %6, align 4, !tbaa !8
  %15 = call ptr @Ssw_ObjFrame(ptr noundef %11, ptr noundef %13, i32 noundef %14)
  %16 = load ptr, ptr %5, align 8, !tbaa !30
  %17 = call i32 @Aig_ObjFaninC1(ptr noundef %16)
  %18 = call ptr @Aig_NotCond(ptr noundef %15, i32 noundef %17)
  br label %20

19:                                               ; preds = %3
  br label %20

20:                                               ; preds = %19, %10
  %21 = phi ptr [ %18, %10 ], [ null, %19 ]
  ret ptr %21
}

; Function Attrs: inlinehint nounwind uwtable
define internal ptr @Ssw_ObjChild0Fra(ptr noundef %0, ptr noundef %1, i32 noundef %2) #2 {
  %4 = alloca ptr, align 8
  %5 = alloca ptr, align 8
  %6 = alloca i32, align 4
  store ptr %0, ptr %4, align 8, !tbaa !3
  store ptr %1, ptr %5, align 8, !tbaa !30
  store i32 %2, ptr %6, align 4, !tbaa !8
  %7 = load ptr, ptr %5, align 8, !tbaa !30
  %8 = call ptr @Aig_ObjFanin0(ptr noundef %7)
  %9 = icmp ne ptr %8, null
  br i1 %9, label %10, label %19

10:                                               ; preds = %3
  %11 = load ptr, ptr %4, align 8, !tbaa !3
  %12 = load ptr, ptr %5, align 8, !tbaa !30
  %13 = call ptr @Aig_ObjFanin0(ptr noundef %12)
  %14 = load i32, ptr %6, align 4, !tbaa !8
  %15 = call ptr @Ssw_ObjFrame(ptr noundef %11, ptr noundef %13, i32 noundef %14)
  %16 = load ptr, ptr %5, align 8, !tbaa !30
  %17 = call i32 @Aig_ObjFaninC0(ptr noundef %16)
  %18 = call ptr @Aig_NotCond(ptr noundef %15, i32 noundef %17)
  br label %20

19:                                               ; preds = %3
  br label %20

20:                                               ; preds = %19, %10
  %21 = phi ptr [ %18, %10 ], [ null, %19 ]
  ret ptr %21
}

; Function Attrs: inlinehint nounwind uwtable
define internal ptr @Aig_ObjFanin1(ptr noundef %0) #2 {
  %2 = alloca ptr, align 8
  store ptr %0, ptr %2, align 8, !tbaa !30
  %3 = load ptr, ptr %2, align 8, !tbaa !30
  %4 = getelementptr inbounds nuw %struct.Aig_Obj_t_, ptr %3, i32 0, i32 2
  %5 = load ptr, ptr %4, align 8, !tbaa !76
  %6 = call ptr @Aig_Regular(ptr noundef %5)
  ret ptr %6
}

; Function Attrs: inlinehint nounwind uwtable
define internal ptr @Aig_ObjFanin0(ptr noundef %0) #2 {
  %2 = alloca ptr, align 8
  store ptr %0, ptr %2, align 8, !tbaa !30
  %3 = load ptr, ptr %2, align 8, !tbaa !30
  %4 = getelementptr inbounds nuw %struct.Aig_Obj_t_, ptr %3, i32 0, i32 1
  %5 = load ptr, ptr %4, align 8, !tbaa !75
  %6 = call ptr @Aig_Regular(ptr noundef %5)
  ret ptr %6
}

; Function Attrs: inlinehint nounwind uwtable
define internal ptr @Ssw_ObjFrame(ptr noundef %0, ptr noundef %1, i32 noundef %2) #2 {
  %4 = alloca ptr, align 8
  %5 = alloca ptr, align 8
  %6 = alloca i32, align 4
  store ptr %0, ptr %4, align 8, !tbaa !3
  store ptr %1, ptr %5, align 8, !tbaa !30
  store i32 %2, ptr %6, align 4, !tbaa !8
  %7 = load ptr, ptr %4, align 8, !tbaa !3
  %8 = getelementptr inbounds nuw %struct.Ssw_Man_t_, ptr %7, i32 0, i32 4
  %9 = load ptr, ptr %8, align 8, !tbaa !42
  %10 = load ptr, ptr %4, align 8, !tbaa !3
  %11 = getelementptr inbounds nuw %struct.Ssw_Man_t_, ptr %10, i32 0, i32 1
  %12 = load i32, ptr %11, align 8, !tbaa !43
  %13 = load ptr, ptr %5, align 8, !tbaa !30
  %14 = getelementptr inbounds nuw %struct.Aig_Obj_t_, ptr %13, i32 0, i32 5
  %15 = load i32, ptr %14, align 4, !tbaa !44
  %16 = mul nsw i32 %12, %15
  %17 = load i32, ptr %6, align 4, !tbaa !8
  %18 = add nsw i32 %16, %17
  %19 = sext i32 %18 to i64
  %20 = getelementptr inbounds ptr, ptr %9, i64 %19
  %21 = load ptr, ptr %20, align 8, !tbaa !30
  ret ptr %21
}

; Function Attrs: nounwind uwtable
define void @Ssw_ManBuildCone_rec(ptr noundef %0, ptr noundef %1) #0 {
  %3 = alloca ptr, align 8
  %4 = alloca ptr, align 8
  %5 = alloca ptr, align 8
  %6 = alloca i32, align 4
  store ptr %0, ptr %3, align 8, !tbaa !3
  store ptr %1, ptr %4, align 8, !tbaa !30
  call void @llvm.lifetime.start.p0(i64 8, ptr %5) #8
  %7 = load ptr, ptr %3, align 8, !tbaa !3
  %8 = load ptr, ptr %4, align 8, !tbaa !30
  %9 = call ptr @Ssw_ObjFrame(ptr noundef %7, ptr noundef %8, i32 noundef 0)
  %10 = icmp ne ptr %9, null
  br i1 %10, label %11, label %12

11:                                               ; preds = %2
  store i32 1, ptr %6, align 4
  br label %32

12:                                               ; preds = %2
  %13 = load ptr, ptr %3, align 8, !tbaa !3
  %14 = load ptr, ptr %4, align 8, !tbaa !30
  %15 = call ptr @Aig_ObjFanin0(ptr noundef %14)
  call void @Ssw_ManBuildCone_rec(ptr noundef %13, ptr noundef %15)
  %16 = load ptr, ptr %3, align 8, !tbaa !3
  %17 = load ptr, ptr %4, align 8, !tbaa !30
  %18 = call ptr @Aig_ObjFanin1(ptr noundef %17)
  call void @Ssw_ManBuildCone_rec(ptr noundef %16, ptr noundef %18)
  %19 = load ptr, ptr %3, align 8, !tbaa !3
  %20 = getelementptr inbounds nuw %struct.Ssw_Man_t_, ptr %19, i32 0, i32 3
  %21 = load ptr, ptr %20, align 8, !tbaa !31
  %22 = load ptr, ptr %3, align 8, !tbaa !3
  %23 = load ptr, ptr %4, align 8, !tbaa !30
  %24 = call ptr @Ssw_ObjChild0Fra(ptr noundef %22, ptr noundef %23, i32 noundef 0)
  %25 = load ptr, ptr %3, align 8, !tbaa !3
  %26 = load ptr, ptr %4, align 8, !tbaa !30
  %27 = call ptr @Ssw_ObjChild1Fra(ptr noundef %25, ptr noundef %26, i32 noundef 0)
  %28 = call ptr @Aig_And(ptr noundef %21, ptr noundef %24, ptr noundef %27)
  store ptr %28, ptr %5, align 8, !tbaa !30
  %29 = load ptr, ptr %3, align 8, !tbaa !3
  %30 = load ptr, ptr %4, align 8, !tbaa !30
  %31 = load ptr, ptr %5, align 8, !tbaa !30
  call void @Ssw_ObjSetFrame(ptr noundef %29, ptr noundef %30, i32 noundef 0, ptr noundef %31)
  store i32 0, ptr %6, align 4
  br label %32

32:                                               ; preds = %12, %11
  call void @llvm.lifetime.end.p0(i64 8, ptr %5) #8
  %33 = load i32, ptr %6, align 4
  switch i32 %33, label %35 [
    i32 0, label %34
    i32 1, label %34
  ]

34:                                               ; preds = %32, %32
  ret void

35:                                               ; preds = %32
  unreachable
}