; Function Attrs: nounwind uwtable
define void @Ssw_ManBuildCone_rec(ptr noundef %0, ptr noundef readonly captures(none) %1) local_unnamed_addr #0 {
  %3 = getelementptr i8, ptr %0, i64 8
  %.val = load i32, ptr %3, align 8, !tbaa !31
  %4 = getelementptr i8, ptr %0, i64 32
  %.val14 = load ptr, ptr %4, align 8, !tbaa !32
  %5 = getelementptr i8, ptr %1, i64 36
  %.val15 = load i32, ptr %5, align 4, !tbaa !33
  %6 = mul nsw i32 %.val15, %.val
  %7 = sext i32 %6 to i64
  %8 = getelementptr inbounds ptr, ptr %.val14, i64 %7
  %9 = load ptr, ptr %8, align 8, !tbaa !34
  %.not = icmp eq ptr %9, null
  br i1 %.not, label %10, label %53

10:                                               ; preds = %2
  %11 = getelementptr i8, ptr %1, i64 8
  %.val16 = load ptr, ptr %11, align 8, !tbaa !74
  %12 = ptrtoint ptr %.val16 to i64
  %13 = and i64 %12, -2
  %14 = inttoptr i64 %13 to ptr
  tail call void @Ssw_ManBuildCone_rec(ptr noundef nonnull %0, ptr noundef %14)
  %15 = getelementptr i8, ptr %1, i64 16
  %.val17 = load ptr, ptr %15, align 8, !tbaa !75
  %16 = ptrtoint ptr %.val17 to i64
  %17 = and i64 %16, -2
  %18 = inttoptr i64 %17 to ptr
  tail call void @Ssw_ManBuildCone_rec(ptr noundef nonnull %0, ptr noundef %18)
  %19 = getelementptr inbounds nuw i8, ptr %0, i64 24
  %20 = load ptr, ptr %19, align 8, !tbaa !35
  %.val18 = load ptr, ptr %11, align 8, !tbaa !74
  %21 = ptrtoint ptr %.val18 to i64
  %22 = and i64 %21, -2
  %.not.i = icmp eq i64 %22, 0
  br i1 %.not.i, label %Ssw_ObjChild0Fra.exit, label %23

23:                                               ; preds = %10
  %24 = inttoptr i64 %22 to ptr
  %.val.i = load i32, ptr %3, align 8, !tbaa !31
  %.val4.i = load ptr, ptr %4, align 8, !tbaa !32
  %25 = getelementptr i8, ptr %24, i64 36
  %.val5.i = load i32, ptr %25, align 4, !tbaa !33
  %26 = mul nsw i32 %.val5.i, %.val.i
  %27 = sext i32 %26 to i64
  %28 = getelementptr inbounds ptr, ptr %.val4.i, i64 %27
  %29 = load ptr, ptr %28, align 8, !tbaa !34
  %30 = and i64 %21, 1
  %31 = ptrtoint ptr %29 to i64
  %32 = xor i64 %30, %31
  %33 = inttoptr i64 %32 to ptr
  br label %Ssw_ObjChild0Fra.exit

Ssw_ObjChild0Fra.exit:                            ; preds = %10, %23
  %34 = phi ptr [ %33, %23 ], [ null, %10 ]
  %.val19 = load ptr, ptr %15, align 8, !tbaa !75
  %35 = ptrtoint ptr %.val19 to i64
  %36 = and i64 %35, -2
  %.not.i23 = icmp eq i64 %36, 0
  br i1 %.not.i23, label %Ssw_ObjChild1Fra.exit, label %37

37:                                               ; preds = %Ssw_ObjChild0Fra.exit
  %38 = inttoptr i64 %36 to ptr
  %.val.i24 = load i32, ptr %3, align 8, !tbaa !31
  %.val4.i25 = load ptr, ptr %4, align 8, !tbaa !32
  %39 = getelementptr i8, ptr %38, i64 36
  %.val5.i26 = load i32, ptr %39, align 4, !tbaa !33
  %40 = mul nsw i32 %.val5.i26, %.val.i24
  %41 = sext i32 %40 to i64
  %42 = getelementptr inbounds ptr, ptr %.val4.i25, i64 %41
  %43 = load ptr, ptr %42, align 8, !tbaa !34
  %44 = and i64 %35, 1
  %45 = ptrtoint ptr %43 to i64
  %46 = xor i64 %44, %45
  %47 = inttoptr i64 %46 to ptr
  br label %Ssw_ObjChild1Fra.exit

Ssw_ObjChild1Fra.exit:                            ; preds = %Ssw_ObjChild0Fra.exit, %37
  %48 = phi ptr [ %47, %37 ], [ null, %Ssw_ObjChild0Fra.exit ]
  %49 = tail call ptr @Aig_And(ptr noundef %20, ptr noundef %34, ptr noundef %48) #9
  %.val20 = load i32, ptr %3, align 8, !tbaa !31
  %.val21 = load ptr, ptr %4, align 8, !tbaa !32
  %.val22 = load i32, ptr %5, align 4, !tbaa !33
  %50 = mul nsw i32 %.val22, %.val20
  %51 = sext i32 %50 to i64
  %52 = getelementptr inbounds ptr, ptr %.val21, i64 %51
  store ptr %49, ptr %52, align 8, !tbaa !34
  br label %53

53:                                               ; preds = %2, %Ssw_ObjChild1Fra.exit
  ret void
}